target datalayout = "e-m:e-p270:32:32-p271:32:32-p272:64:64-i64:64-i128:128-f80:128-n8:16:32:64-S128"
target triple = "x86_64-pc-linux-gnu"

%struct.anon = type { i64, double, double, double, double, double, double, double }

@.str.10 = private unnamed_addr constant [19 x i8] c"N_VGetArrayPointer\00", align 1
@stderr = external global ptr, align 8
@.str.52 = private unnamed_addr constant [55 x i8] c"\0ASUNDIALS_ERROR: %s() failed - returned NULL pointer\0A\0A\00", align 1
@.str.53 = private unnamed_addr constant [46 x i8] c"\0ASUNDIALS_ERROR: %s() failed with flag = %d\0A\0A\00", align 1
@.str.54 = private unnamed_addr constant [53 x i8] c"\0AMEMORY_ERROR: %s() failed - returned NULL pointer\0A\0A\00", align 1

; Function Attrs: nounwind uwtable
define internal i32 @check_flag(ptr noundef %0, ptr noundef %1, i32 noundef %2) #0 {
  %4 = alloca i32, align 4
  %5 = alloca ptr, align 8
  %6 = alloca ptr, align 8
  %7 = alloca i32, align 4
  %8 = alloca ptr, align 8
  %9 = alloca i32, align 4
  store ptr %0, ptr %5, align 8, !tbaa !10
  store ptr %1, ptr %6, align 8, !tbaa !33
  store i32 %2, ptr %7, align 4, !tbaa !8
  call void @llvm.lifetime.start.p0(i64 8, ptr %8) #6
  %10 = load i32, ptr %7, align 4, !tbaa !8
  %11 = icmp eq i32 %10, 0
  br i1 %11, label %12, label %19

12:                                               ; preds = %3
  %13 = load ptr, ptr %5, align 8, !tbaa !10
  %14 = icmp eq ptr %13, null
  br i1 %14, label %15, label %19

15:                                               ; preds = %12
  %16 = load ptr, ptr @stderr, align 8, !tbaa !31
  %17 = load ptr, ptr %6, align 8, !tbaa !33
  %18 = call i32 (ptr, ptr, ...) @fprintf(ptr noundef %16, ptr noundef @.str.52, ptr noundef %17) #6
  store i32 1, ptr %4, align 4
  store i32 1, ptr %9, align 4
  br label %47

19:                                               ; preds = %12, %3
  %20 = load i32, ptr %7, align 4, !tbaa !8
  %21 = icmp eq i32 %20, 1
  br i1 %21, label %22, label %34

22:                                               ; preds = %19
  %23 = load ptr, ptr %5, align 8, !tbaa !10
  store ptr %23, ptr %8, align 8, !tbaa !35
  %24 = load ptr, ptr %8, align 8, !tbaa !35
  %25 = load i32, ptr %24, align 4, !tbaa !8
  %26 = icmp slt i32 %25, 0
  br i1 %26, label %27, label %33

27:                                               ; preds = %22
  %28 = load ptr, ptr @stderr, align 8, !tbaa !31
  %29 = load ptr, ptr %6, align 8, !tbaa !33
  %30 = load ptr, ptr %8, align 8, !tbaa !35
  %31 = load i32, ptr %30, align 4, !tbaa !8
  %32 = call i32 (ptr, ptr, ...) @fprintf(ptr noundef %28, ptr noundef @.str.53, ptr noundef %29, i32 noundef %31) #6
  store i32 1, ptr %4, align 4
  store i32 1, ptr %9, align 4
  br label %47

33:                                               ; preds = %22
  br label %45

34:                                               ; preds = %19
  %35 = load i32, ptr %7, align 4, !tbaa !8
  %36 = icmp eq i32 %35, 2
  br i1 %36, label %37, label %44

37:                                               ; preds = %34
  %38 = load ptr, ptr %5, align 8, !tbaa !10
  %39 = icmp eq ptr %38, null
  br i1 %39, label %40, label %44

40:                                               ; preds = %37
  %41 = load ptr, ptr @stderr, align 8, !tbaa !31
  %42 = load ptr, ptr %6, align 8, !tbaa !33
  %43 = call i32 (ptr, ptr, ...) @fprintf(ptr noundef %41, ptr noundef @.str.54, ptr noundef %42) #6
  store i32 1, ptr %4, align 4
  store i32 1, ptr %9, align 4
  br label %47

44:                                               ; preds = %37, %34
  br label %45

45:                                               ; preds = %44, %33
  br label %46

46:                                               ; preds = %45
  store i32 0, ptr %4, align 4
  store i32 1, ptr %9, align 4
  br label %47

47:                                               ; preds = %46, %40, %27, %15
  call void @llvm.lifetime.end.p0(i64 8, ptr %8) #6
  %48 = load i32, ptr %4, align 4
  ret i32 %48
}

; Function Attrs: nounwind uwtable
define internal i32 @fi(double noundef %0, ptr noundef %1, ptr noundef %2, ptr noundef %3) #0 {
  %5 = alloca i32, align 4
  %6 = alloca double, align 8
  %7 = alloca ptr, align 8
  %8 = alloca ptr, align 8
  %9 = alloca ptr, align 8
  %10 = alloca ptr, align 8
  %11 = alloca i64, align 8
  %12 = alloca double, align 8
  %13 = alloca double, align 8
  %14 = alloca double, align 8
  %15 = alloca ptr, align 8
  %16 = alloca ptr, align 8
  %17 = alloca ptr, align 8
  %18 = alloca ptr, align 8
  %19 = alloca ptr, align 8
  %20 = alloca ptr, align 8
  %21 = alloca i64, align 8
  %22 = alloca i32, align 4
  store double %0, ptr %6, align 8, !tbaa !4
  store ptr %1, ptr %7, align 8, !tbaa !14
  store ptr %2, ptr %8, align 8, !tbaa !14
  store ptr %3, ptr %9, align 8, !tbaa !10
  call void @llvm.lifetime.start.p0(i64 8, ptr %10) #6
  %23 = load ptr, ptr %9, align 8, !tbaa !10
  store ptr %23, ptr %10, align 8, !tbaa !10
  call void @llvm.lifetime.start.p0(i64 8, ptr %11) #6
  %24 = load ptr, ptr %10, align 8, !tbaa !10
  %25 = getelementptr inbounds nuw %struct.anon, ptr %24, i32 0, i32 0
  %26 = load i64, ptr %25, align 8, !tbaa !18
  store i64 %26, ptr %11, align 8, !tbaa !12
  call void @llvm.lifetime.start.p0(i64 8, ptr %12) #6
  %27 = load ptr, ptr %10, align 8, !tbaa !10
  %28 = getelementptr inbounds nuw %struct.anon, ptr %27, i32 0, i32 2
  %29 = load double, ptr %28, align 8, !tbaa !20
  store double %29, ptr %12, align 8, !tbaa !4
  call void @llvm.lifetime.start.p0(i64 8, ptr %13) #6
  %30 = load ptr, ptr %10, align 8, !tbaa !10
  %31 = getelementptr inbounds nuw %struct.anon, ptr %30, i32 0, i32 3
  %32 = load double, ptr %31, align 8, !tbaa !21
  store double %32, ptr %13, align 8, !tbaa !4
  call void @llvm.lifetime.start.p0(i64 8, ptr %14) #6
  %33 = load ptr, ptr %10, align 8, !tbaa !10
  %34 = getelementptr inbounds nuw %struct.anon, ptr %33, i32 0, i32 7
  %35 = load double, ptr %34, align 8, !tbaa !25
  store double %35, ptr %14, align 8, !tbaa !4
  call void @llvm.lifetime.start.p0(i64 8, ptr %15) #6
  store ptr null, ptr %15, align 8, !tbaa !29
  call void @llvm.lifetime.start.p0(i64 8, ptr %16) #6
  store ptr null, ptr %16, align 8, !tbaa !29
  call void @llvm.lifetime.start.p0(i64 8, ptr %17) #6
  store ptr null, ptr %17, align 8, !tbaa !29
  call void @llvm.lifetime.start.p0(i64 8, ptr %18) #6
  store ptr null, ptr %18, align 8, !tbaa !29
  call void @llvm.lifetime.start.p0(i64 8, ptr %19) #6
  store ptr null, ptr %19, align 8, !tbaa !29
  call void @llvm.lifetime.start.p0(i64 8, ptr %20) #6
  store ptr null, ptr %20, align 8, !tbaa !29
  call void @llvm.lifetime.start.p0(i64 8, ptr %21) #6
  %36 = load ptr, ptr %7, align 8, !tbaa !14
  %37 = call ptr @N_VGetSubvector_ManyVector(ptr noundef %36, i64 noundef 0)
  %38 = call ptr @N_VGetArrayPointer(ptr noundef %37)
  store ptr %38, ptr %15, align 8, !tbaa !29
  %39 = load ptr, ptr %15, align 8, !tbaa !29
  %40 = call i32 @check_flag(ptr noundef %39, ptr noundef @.str.10, i32 noundef 0)
  %41 = icmp ne i32 %40, 0
  br i1 %41, label %42, label %43

42:                                               ; preds = %4
  store i32 1, ptr %5, align 4
  store i32 1, ptr %22, align 4
  br label %190

43:                                               ; preds = %4
  %44 = load ptr, ptr %7, align 8, !tbaa !14
  %45 = call ptr @N_VGetSubvector_ManyVector(ptr noundef %44, i64 noundef 1)
  %46 = call ptr @N_VGetArrayPointer(ptr noundef %45)
  store ptr %46, ptr %16, align 8, !tbaa !29
  %47 = load ptr, ptr %16, align 8, !tbaa !29
  %48 = call i32 @check_flag(ptr noundef %47, ptr noundef @.str.10, i32 noundef 0)
  %49 = icmp ne i32 %48, 0
  br i1 %49, label %50, label %51

50:                                               ; preds = %43
  store i32 1, ptr %5, align 4
  store i32 1, ptr %22, align 4
  br label %190

51:                                               ; preds = %43
  %52 = load ptr, ptr %7, align 8, !tbaa !14
  %53 = call ptr @N_VGetSubvector_ManyVector(ptr noundef %52, i64 noundef 2)
  %54 = call ptr @N_VGetArrayPointer(ptr noundef %53)
  store ptr %54, ptr %17, align 8, !tbaa !29
  %55 = load ptr, ptr %17, align 8, !tbaa !29
  %56 = call i32 @check_flag(ptr noundef %55, ptr noundef @.str.10, i32 noundef 0)
  %57 = icmp ne i32 %56, 0
  br i1 %57, label %58, label %59

58:                                               ; preds = %51
  store i32 1, ptr %5, align 4
  store i32 1, ptr %22, align 4
  br label %190

59:                                               ; preds = %51
  %60 = load ptr, ptr %8, align 8, !tbaa !14
  %61 = call ptr @N_VGetSubvector_ManyVector(ptr noundef %60, i64 noundef 0)
  %62 = call ptr @N_VGetArrayPointer(ptr noundef %61)
  store ptr %62, ptr %18, align 8, !tbaa !29
  %63 = load ptr, ptr %18, align 8, !tbaa !29
  %64 = call i32 @check_flag(ptr noundef %63, ptr noundef @.str.10, i32 noundef 0)
  %65 = icmp ne i32 %64, 0
  br i1 %65, label %66, label %67

66:                                               ; preds = %59
  store i32 1, ptr %5, align 4
  store i32 1, ptr %22, align 4
  br label %190

67:                                               ; preds = %59
  %68 = load ptr, ptr %8, align 8, !tbaa !14
  %69 = call ptr @N_VGetSubvector_ManyVector(ptr noundef %68, i64 noundef 1)
  %70 = call ptr @N_VGetArrayPointer(ptr noundef %69)
  store ptr %70, ptr %19, align 8, !tbaa !29
  %71 = load ptr, ptr %19, align 8, !tbaa !29
  %72 = call i32 @check_flag(ptr noundef %71, ptr noundef @.str.10, i32 noundef 0)
  %73 = icmp ne i32 %72, 0
  br i1 %73, label %74, label %75

74:                                               ; preds = %67
  store i32 1, ptr %5, align 4
  store i32 1, ptr %22, align 4
  br label %190

75:                                               ; preds = %67
  %76 = load ptr, ptr %8, align 8, !tbaa !14
  %77 = call ptr @N_VGetSubvector_ManyVector(ptr noundef %76, i64 noundef 2)
  %78 = call ptr @N_VGetArrayPointer(ptr noundef %77)
  store ptr %78, ptr %20, align 8, !tbaa !29
  %79 = load ptr, ptr %20, align 8, !tbaa !29
  %80 = call i32 @check_flag(ptr noundef %79, ptr noundef @.str.10, i32 noundef 0)
  %81 = icmp ne i32 %80, 0
  br i1 %81, label %82, label %83

82:                                               ; preds = %75
  store i32 1, ptr %5, align 4
  store i32 1, ptr %22, align 4
  br label %190

83:                                               ; preds = %75
  %84 = load ptr, ptr %8, align 8, !tbaa !14
  call void @N_VConst(double noundef 0.000000e+00, ptr noundef %84)
  store i64 1, ptr %21, align 8, !tbaa !12
  br label %85

85:                                               ; preds = %168, %83
  %86 = load i64, ptr %21, align 8, !tbaa !12
  %87 = load i64, ptr %11, align 8, !tbaa !12
  %88 = sub nsw i64 %87, 1
  %89 = icmp slt i64 %86, %88
  br i1 %89, label %90, label %171

90:                                               ; preds = %85
  %91 = load double, ptr %12, align 8, !tbaa !4
  %92 = load ptr, ptr %17, align 8, !tbaa !29
  %93 = load i64, ptr %21, align 8, !tbaa !12
  %94 = getelementptr inbounds double, ptr %92, i64 %93
  %95 = load double, ptr %94, align 8, !tbaa !4
  %96 = fadd double %95, 1.000000e+00
  %97 = load ptr, ptr %15, align 8, !tbaa !29
  %98 = load i64, ptr %21, align 8, !tbaa !12
  %99 = getelementptr inbounds double, ptr %97, i64 %98
  %100 = load double, ptr %99, align 8, !tbaa !4
  %101 = fneg double %96
  %102 = call double @llvm.fmuladd.f64(double %101, double %100, double %91)
  %103 = load ptr, ptr %16, align 8, !tbaa !29
  %104 = load i64, ptr %21, align 8, !tbaa !12
  %105 = getelementptr inbounds double, ptr %103, i64 %104
  %106 = load double, ptr %105, align 8, !tbaa !4
  %107 = load ptr, ptr %15, align 8, !tbaa !29
  %108 = load i64, ptr %21, align 8, !tbaa !12
  %109 = getelementptr inbounds double, ptr %107, i64 %108
  %110 = load double, ptr %109, align 8, !tbaa !4
  %111 = fmul double %106, %110
  %112 = load ptr, ptr %15, align 8, !tbaa !29
  %113 = load i64, ptr %21, align 8, !tbaa !12
  %114 = getelementptr inbounds double, ptr %112, i64 %113
  %115 = load double, ptr %114, align 8, !tbaa !4
  %116 = call double @llvm.fmuladd.f64(double %111, double %115, double %102)
  %117 = load ptr, ptr %18, align 8, !tbaa !29
  %118 = load i64, ptr %21, align 8, !tbaa !12
  %119 = getelementptr inbounds double, ptr %117, i64 %118
  store double %116, ptr %119, align 8, !tbaa !4
  %120 = load ptr, ptr %17, align 8, !tbaa !29
  %121 = load i64, ptr %21, align 8, !tbaa !12
  %122 = getelementptr inbounds double, ptr %120, i64 %121
  %123 = load double, ptr %122, align 8, !tbaa !4
  %124 = load ptr, ptr %15, align 8, !tbaa !29
  %125 = load i64, ptr %21, align 8, !tbaa !12
  %126 = getelementptr inbounds double, ptr %124, i64 %125
  %127 = load double, ptr %126, align 8, !tbaa !4
  %128 = load ptr, ptr %16, align 8, !tbaa !29
  %129 = load i64, ptr %21, align 8, !tbaa !12
  %130 = getelementptr inbounds double, ptr %128, i64 %129
  %131 = load double, ptr %130, align 8, !tbaa !4
  %132 = load ptr, ptr %15, align 8, !tbaa !29
  %133 = load i64, ptr %21, align 8, !tbaa !12
  %134 = getelementptr inbounds double, ptr %132, i64 %133
  %135 = load double, ptr %134, align 8, !tbaa !4
  %136 = fmul double %131, %135
  %137 = load ptr, ptr %15, align 8, !tbaa !29
  %138 = load i64, ptr %21, align 8, !tbaa !12
  %139 = getelementptr inbounds double, ptr %137, i64 %138
  %140 = load double, ptr %139, align 8, !tbaa !4
  %141 = fmul double %136, %140
  %142 = fneg double %141
  %143 = call double @llvm.fmuladd.f64(double %123, double %127, double %142)
  %144 = load ptr, ptr %19, align 8, !tbaa !29
  %145 = load i64, ptr %21, align 8, !tbaa !12
  %146 = getelementptr inbounds double, ptr %144, i64 %145
  store double %143, ptr %146, align 8, !tbaa !4
  %147 = load double, ptr %13, align 8, !tbaa !4
  %148 = load ptr, ptr %17, align 8, !tbaa !29
  %149 = load i64, ptr %21, align 8, !tbaa !12
  %150 = getelementptr inbounds double, ptr %148, i64 %149
  %151 = load double, ptr %150, align 8, !tbaa !4
  %152 = fsub double %147, %151
  %153 = load double, ptr %14, align 8, !tbaa !4
  %154 = fdiv double %152, %153
  %155 = load ptr, ptr %17, align 8, !tbaa !29
  %156 = load i64, ptr %21, align 8, !tbaa !12
  %157 = getelementptr inbounds double, ptr %155, i64 %156
  %158 = load double, ptr %157, align 8, !tbaa !4
  %159 = load ptr, ptr %15, align 8, !tbaa !29
  %160 = load i64, ptr %21, align 8, !tbaa !12
  %161 = getelementptr inbounds double, ptr %159, i64 %160
  %162 = load double, ptr %161, align 8, !tbaa !4
  %163 = fneg double %158
  %164 = call double @llvm.fmuladd.f64(double %163, double %162, double %154)
  %165 = load ptr, ptr %20, align 8, !tbaa !29
  %166 = load i64, ptr %21, align 8, !tbaa !12
  %167 = getelementptr inbounds double, ptr %165, i64 %166
  store double %164, ptr %167, align 8, !tbaa !4
  br label %168

168:                                              ; preds = %90
  %169 = load i64, ptr %21, align 8, !tbaa !12
  %170 = add nsw i64 %169, 1
  store i64 %170, ptr %21, align 8, !tbaa !12
  br label %85

171:                                              ; preds = %85
  %172 = load ptr, ptr %20, align 8, !tbaa !29
  %173 = getelementptr inbounds double, ptr %172, i64 0
  store double 0.000000e+00, ptr %173, align 8, !tbaa !4
  %174 = load ptr, ptr %19, align 8, !tbaa !29
  %175 = getelementptr inbounds double, ptr %174, i64 0
  store double 0.000000e+00, ptr %175, align 8, !tbaa !4
  %176 = load ptr, ptr %18, align 8, !tbaa !29
  %177 = getelementptr inbounds double, ptr %176, i64 0
  store double 0.000000e+00, ptr %177, align 8, !tbaa !4
  %178 = load ptr, ptr %20, align 8, !tbaa !29
  %179 = load i64, ptr %11, align 8, !tbaa !12
  %180 = sub nsw i64 %179, 1
  %181 = getelementptr inbounds double, ptr %178, i64 %180
  store double 0.000000e+00, ptr %181, align 8, !tbaa !4
  %182 = load ptr, ptr %19, align 8, !tbaa !29
  %183 = load i64, ptr %11, align 8, !tbaa !12
  %184 = sub nsw i64 %183, 1
  %185 = getelementptr inbounds double, ptr %182, i64 %184
  store double 0.000000e+00, ptr %185, align 8, !tbaa !4
  %186 = load ptr, ptr %18, align 8, !tbaa !29
  %187 = load i64, ptr %11, align 8, !tbaa !12
  %188 = sub nsw i64 %187, 1
  %189 = getelementptr inbounds double, ptr %186, i64 %188
  store double 0.000000e+00, ptr %189, align 8, !tbaa !4
  store i32 0, ptr %5, align 4
  store i32 1, ptr %22, align 4
  br label %190

190:                                              ; preds = %171, %82, %74, %66, %58, %50, %42
  call void @llvm.lifetime.end.p0(i64 8, ptr %21) #6
  call void @llvm.lifetime.end.p0(i64 8, ptr %20) #6
  call void @llvm.lifetime.end.p0(i64 8, ptr %19) #6
  call void @llvm.lifetime.end.p0(i64 8, ptr %18) #6
  call void @llvm.lifetime.end.p0(i64 8, ptr %17) #6
  call void @llvm.lifetime.end.p0(i64 8, ptr %16) #6
  call void @llvm.lifetime.end.p0(i64 8, ptr %15) #6
  call void @llvm.lifetime.end.p0(i64 8, ptr %14) #6
  call void @llvm.lifetime.end.p0(i64 8, ptr %13) #6
  call void @llvm.lifetime.end.p0(i64 8, ptr %12) #6
  call void @llvm.lifetime.end.p0(i64 8, ptr %11) #6
  call void @llvm.lifetime.end.p0(i64 8, ptr %10) #6
  %191 = load i32, ptr %5, align 4
  ret i32 %191
}