; Function Attrs: nounwind uwtable
define internal range(i32 0, 2) i32 @fi(double %0, ptr noundef %1, ptr noundef %2, ptr noundef readonly captures(none) %3) #0 {
  %5 = load i64, ptr %3, align 8, !tbaa !10
  %6 = getelementptr inbounds nuw i8, ptr %3, i64 16
  %7 = load double, ptr %6, align 8, !tbaa !14
  %8 = getelementptr inbounds nuw i8, ptr %3, i64 24
  %9 = load double, ptr %8, align 8, !tbaa !15
  %10 = getelementptr inbounds nuw i8, ptr %3, i64 56
  %11 = load double, ptr %10, align 8, !tbaa !19
  %12 = tail call ptr @N_VGetSubvector_ManyVector(ptr noundef %1, i64 noundef 0) #9
  %13 = tail call ptr @N_VGetArrayPointer(ptr noundef %12) #9
  %14 = icmp eq ptr %13, null
  br i1 %14, label %check_flag.exit, label %17

check_flag.exit:                                  ; preds = %4
  %15 = load ptr, ptr @stderr, align 8, !tbaa !8
  %16 = tail call i32 (ptr, ptr, ...) @fprintf(ptr noundef %15, ptr noundef nonnull @.str.52, ptr noundef nonnull @.str.10) #10
  br label %81

17:                                               ; preds = %4
  %18 = tail call ptr @N_VGetSubvector_ManyVector(ptr noundef %1, i64 noundef 1) #9
  %19 = tail call ptr @N_VGetArrayPointer(ptr noundef %18) #9
  %20 = icmp eq ptr %19, null
  br i1 %20, label %check_flag.exit73, label %23

check_flag.exit73:                                ; preds = %17
  %21 = load ptr, ptr @stderr, align 8, !tbaa !8
  %22 = tail call i32 (ptr, ptr, ...) @fprintf(ptr noundef %21, ptr noundef nonnull @.str.52, ptr noundef nonnull @.str.10) #10
  br label %81

23:                                               ; preds = %17
  %24 = tail call ptr @N_VGetSubvector_ManyVector(ptr noundef %1, i64 noundef 2) #9
  %25 = tail call ptr @N_VGetArrayPointer(ptr noundef %24) #9
  %26 = icmp eq ptr %25, null
  br i1 %26, label %check_flag.exit75, label %29

check_flag.exit75:                                ; preds = %23
  %27 = load ptr, ptr @stderr, align 8, !tbaa !8
  %28 = tail call i32 (ptr, ptr, ...) @fprintf(ptr noundef %27, ptr noundef nonnull @.str.52, ptr noundef nonnull @.str.10) #10
  br label %81

29:                                               ; preds = %23
  %30 = tail call ptr @N_VGetSubvector_ManyVector(ptr noundef %2, i64 noundef 0) #9
  %31 = tail call ptr @N_VGetArrayPointer(ptr noundef %30) #9
  %32 = icmp eq ptr %31, null
  br i1 %32, label %check_flag.exit77, label %35

check_flag.exit77:                                ; preds = %29
  %33 = load ptr, ptr @stderr, align 8, !tbaa !8
  %34 = tail call i32 (ptr, ptr, ...) @fprintf(ptr noundef %33, ptr noundef nonnull @.str.52, ptr noundef nonnull @.str.10) #10
  br label %81

35:                                               ; preds = %29
  %36 = tail call ptr @N_VGetSubvector_ManyVector(ptr noundef %2, i64 noundef 1) #9
  %37 = tail call ptr @N_VGetArrayPointer(ptr noundef %36) #9
  %38 = icmp eq ptr %37, null
  br i1 %38, label %check_flag.exit79, label %41

check_flag.exit79:                                ; preds = %35
  %39 = load ptr, ptr @stderr, align 8, !tbaa !8
  %40 = tail call i32 (ptr, ptr, ...) @fprintf(ptr noundef %39, ptr noundef nonnull @.str.52, ptr noundef nonnull @.str.10) #10
  br label %81

41:                                               ; preds = %35
  %42 = tail call ptr @N_VGetSubvector_ManyVector(ptr noundef %2, i64 noundef 2) #9
  %43 = tail call ptr @N_VGetArrayPointer(ptr noundef %42) #9
  %44 = icmp eq ptr %43, null
  br i1 %44, label %check_flag.exit81, label %47

check_flag.exit81:                                ; preds = %41
  %45 = load ptr, ptr @stderr, align 8, !tbaa !8
  %46 = tail call i32 (ptr, ptr, ...) @fprintf(ptr noundef %45, ptr noundef nonnull @.str.52, ptr noundef nonnull @.str.10) #10
  br label %81

47:                                               ; preds = %41
  tail call void @N_VConst(double noundef 0.000000e+00, ptr noundef %2) #9
  %48 = add i64 %5, -1
  %49 = icmp sgt i64 %5, 2
  br i1 %49, label %.lr.ph, label %._crit_edge

.lr.ph:                                           ; preds = %47, %.lr.ph
  %.094 = phi i64 [ %77, %.lr.ph ], [ 1, %47 ]
  %50 = getelementptr inbounds nuw double, ptr %25, i64 %.094
  %51 = load double, ptr %50, align 8, !tbaa !27
  %52 = fadd double %51, 1.000000e+00
  %53 = getelementptr inbounds nuw double, ptr %13, i64 %.094
  %54 = load double, ptr %53, align 8, !tbaa !27
  %55 = fneg double %52
  %56 = tail call double @llvm.fmuladd.f64(double %55, double %54, double %7)
  %57 = getelementptr inbounds nuw double, ptr %19, i64 %.094
  %58 = load double, ptr %57, align 8, !tbaa !27
  %59 = fmul double %54, %58
  %60 = tail call double @llvm.fmuladd.f64(double %59, double %54, double %56)
  %61 = getelementptr inbounds nuw double, ptr %31, i64 %.094
  store double %60, ptr %61, align 8, !tbaa !27
  %62 = load double, ptr %50, align 8, !tbaa !27
  %63 = load double, ptr %53, align 8, !tbaa !27
  %64 = load double, ptr %57, align 8, !tbaa !27
  %65 = fmul double %63, %64
  %66 = fneg double %63
  %67 = fmul double %65, %66
  %68 = tail call double @llvm.fmuladd.f64(double %62, double %63, double %67)
  %69 = getelementptr inbounds nuw double, ptr %37, i64 %.094
  store double %68, ptr %69, align 8, !tbaa !27
  %70 = load double, ptr %50, align 8, !tbaa !27
  %71 = fsub double %9, %70
  %72 = fdiv double %71, %11
  %73 = load double, ptr %53, align 8, !tbaa !27
  %74 = fneg double %70
  %75 = tail call double @llvm.fmuladd.f64(double %74, double %73, double %72)
  %76 = getelementptr inbounds nuw double, ptr %43, i64 %.094
  store double %75, ptr %76, align 8, !tbaa !27
  %77 = add nuw nsw i64 %.094, 1
  %exitcond.not = icmp eq i64 %77, %48
  br i1 %exitcond.not, label %._crit_edge, label %.lr.ph

._crit_edge:                                      ; preds = %.lr.ph, %47
  store double 0.000000e+00, ptr %43, align 8, !tbaa !27
  store double 0.000000e+00, ptr %37, align 8, !tbaa !27
  store double 0.000000e+00, ptr %31, align 8, !tbaa !27
  %78 = getelementptr inbounds double, ptr %43, i64 %48
  store double 0.000000e+00, ptr %78, align 8, !tbaa !27
  %79 = getelementptr inbounds double, ptr %37, i64 %48
  store double 0.000000e+00, ptr %79, align 8, !tbaa !27
  %80 = getelementptr inbounds double, ptr %31, i64 %48
  store double 0.000000e+00, ptr %80, align 8, !tbaa !27
  br label %81

81:                                               ; preds = %check_flag.exit81, %check_flag.exit79, %check_flag.exit77, %check_flag.exit75, %check_flag.exit73, %check_flag.exit, %._crit_edge
  %.065 = phi i32 [ 0, %._crit_edge ], [ 1, %check_flag.exit ], [ 1, %check_flag.exit73 ], [ 1, %check_flag.exit75 ], [ 1, %check_flag.exit77 ], [ 1, %check_flag.exit79 ], [ 1, %check_flag.exit81 ]
  ret i32 %.065
}